target datalayout = "e-m:e-p270:32:32-p271:32:32-p272:64:64-i64:64-i128:128-f80:128-n8:16:32:64-S128"
target triple = "x86_64-pc-linux-gnu"

%struct.http2_session_t = type { [2 x ptr], i32, ptr, [2 x i32], [2 x i32] }
%struct.nstime_t = type { i64, i32 }
%struct.tcp_analysis = type { %struct._tcp_flow_t, %struct._tcp_flow_t, ptr, ptr, ptr, ptr, %struct.nstime_t, %struct.nstime_t, %struct.nstime_t, %struct.nstime_t, i32, i32, i16, i8, i8, ptr, i8, ptr, i8, i8, i8 }
%struct._tcp_flow_t = type { i8, i32, i32, i32, i16, i16, i8, i16, i8, i8, i8, ptr, i16, i32, i32, i16, ptr, ptr, ptr, ptr }
%struct._proto_node = type { ptr, ptr, ptr, ptr, ptr, ptr, ptr }
%struct.field_info = type { ptr, i32, i32, i32, i32, i32, i32, ptr, ptr, ptr, i32, i32 }

@proto_http2 = internal global i32 0, align 4
@hf_http2_calculated_window_size_connection_before = internal global i32 0, align 4
@hf_http2_calculated_window_size_connection_after = internal global i32 0, align 4

; Function Attrs: inlinehint nounwind null_pointer_is_valid sspstrong uwtable
define internal void @proto_item_set_generated(ptr noundef %0) #5 {
  %2 = alloca ptr, align 8
  store ptr %0, ptr %2, align 8
  %3 = load ptr, ptr %2, align 8
  %4 = icmp ne ptr %3, null
  br i1 %4, label %5, label %24

5:                                                ; preds = %1
  br label %6

6:                                                ; preds = %5
  %7 = load ptr, ptr %2, align 8
  %8 = getelementptr inbounds nuw %struct._proto_node, ptr %7, i32 0, i32 5
  %9 = load ptr, ptr %8, align 8
  %10 = icmp ne ptr %9, null
  br i1 %10, label %11, label %22

11:                                               ; preds = %6
  %12 = load ptr, ptr %2, align 8
  %13 = getelementptr inbounds nuw %struct._proto_node, ptr %12, i32 0, i32 5
  %14 = load ptr, ptr %13, align 8
  %15 = getelementptr inbounds nuw %struct.field_info, ptr %14, i32 0, i32 6
  %16 = load i32, ptr %15, align 4
  %17 = or i32 %16, 2
  %18 = load ptr, ptr %2, align 8
  %19 = getelementptr inbounds nuw %struct._proto_node, ptr %18, i32 0, i32 5
  %20 = load ptr, ptr %19, align 8
  %21 = getelementptr inbounds nuw %struct.field_info, ptr %20, i32 0, i32 6
  store i32 %17, ptr %21, align 4
  br label %22

22:                                               ; preds = %11, %6
  br label %23

23:                                               ; preds = %22
  br label %24

24:                                               ; preds = %23, %1
  ret void
}

; Function Attrs: null_pointer_is_valid sspstrong uwtable
define internal i32 @select_http2_flow_index(ptr noundef %0, ptr noundef %1) #1 {
  %3 = alloca i32, align 4
  %4 = alloca ptr, align 8
  %5 = alloca ptr, align 8
  %6 = alloca ptr, align 8
  %7 = alloca i32, align 4
  store ptr %0, ptr %4, align 8
  store ptr %1, ptr %5, align 8
  call void @llvm.lifetime.start.p0(i64 8, ptr %6) #7
  %8 = load ptr, ptr %4, align 8
  %9 = call ptr @get_tcp_conversation_data(ptr noundef null, ptr noundef %8)
  store ptr %9, ptr %6, align 8
  %10 = load ptr, ptr %6, align 8
  %11 = getelementptr inbounds nuw %struct.tcp_analysis, ptr %10, i32 0, i32 2
  %12 = load ptr, ptr %11, align 8
  %13 = load ptr, ptr %5, align 8
  %14 = getelementptr inbounds nuw %struct.http2_session_t, ptr %13, i32 0, i32 2
  %15 = load ptr, ptr %14, align 8
  %16 = icmp eq ptr %12, %15
  br i1 %16, label %17, label %18

17:                                               ; preds = %2
  store i32 0, ptr %3, align 4
  store i32 1, ptr %7, align 4
  br label %19

18:                                               ; preds = %2
  store i32 1, ptr %3, align 4
  store i32 1, ptr %7, align 4
  br label %19

19:                                               ; preds = %18, %17
  call void @llvm.lifetime.end.p0(i64 8, ptr %6) #7
  %20 = load i32, ptr %3, align 4
  ret i32 %20
}

; Function Attrs: null_pointer_is_valid sspstrong uwtable
define internal void @adjust_window_size(ptr noundef %0, ptr noundef %1, ptr noundef %2, ptr noundef %3, i32 noundef %4, i1 noundef zeroext %5) #1 {
  %7 = alloca ptr, align 8
  %8 = alloca ptr, align 8
  %9 = alloca ptr, align 8
  %10 = alloca ptr, align 8
  %11 = alloca i32, align 4
  %12 = alloca i8, align 1
  %13 = alloca i32, align 4
  %14 = alloca i32, align 4
  %15 = alloca ptr, align 8
  %16 = alloca i32, align 4
  store ptr %0, ptr %7, align 8
  store ptr %1, ptr %8, align 8
  store ptr %2, ptr %9, align 8
  store ptr %3, ptr %10, align 8
  store i32 %4, ptr %11, align 4
  %17 = zext i1 %5 to i8
  store i8 %17, ptr %12, align 1
  call void @llvm.lifetime.start.p0(i64 4, ptr %13) #7
  %18 = load ptr, ptr %8, align 8
  %19 = load ptr, ptr %9, align 8
  %20 = call i32 @select_http2_flow_index(ptr noundef %18, ptr noundef %19)
  store i32 %20, ptr %13, align 4
  call void @llvm.lifetime.start.p0(i64 4, ptr %14) #7
  %21 = load i8, ptr %12, align 1, !range !11, !noundef !12
  %22 = trunc i8 %21 to i1
  %23 = select i1 %22, i32 1, i32 -1
  %24 = load i32, ptr %11, align 4
  %25 = mul i32 %23, %24
  store i32 %25, ptr %14, align 4
  %26 = load i8, ptr %12, align 1, !range !11, !noundef !12
  %27 = trunc i8 %26 to i1
  br i1 %27, label %28, label %31

28:                                               ; preds = %6
  %29 = load i32, ptr %13, align 4
  %30 = xor i32 %29, 1
  store i32 %30, ptr %13, align 4
  br label %31

31:                                               ; preds = %28, %6
  %32 = load i8, ptr %12, align 1, !range !11, !noundef !12
  %33 = trunc i8 %32 to i1
  br i1 %33, label %34, label %39

34:                                               ; preds = %31
  %35 = load ptr, ptr %9, align 8
  %36 = getelementptr inbounds nuw %struct.http2_session_t, ptr %35, i32 0, i32 1
  %37 = load i32, ptr %36, align 8
  %38 = icmp eq i32 %37, 0
  br i1 %38, label %39, label %84

39:                                               ; preds = %34, %31
  call void @llvm.lifetime.start.p0(i64 8, ptr %15) #7
  %40 = call ptr @wmem_file_scope()
  %41 = load ptr, ptr %8, align 8
  %42 = load i32, ptr @proto_http2, align 4
  %43 = call ptr @p_get_proto_data(ptr noundef %40, ptr noundef %41, i32 noundef %42, i32 noundef 1)
  store ptr %43, ptr %15, align 8
  call void @llvm.lifetime.start.p0(i64 4, ptr %16) #7
  %44 = load ptr, ptr %15, align 8
  %45 = icmp ne ptr %44, null
  br i1 %45, label %68, label %46

46:                                               ; preds = %39
  %47 = call ptr @wmem_file_scope()
  %48 = call noalias ptr @wmem_alloc0(ptr noundef %47, i64 noundef 4) #8
  store ptr %48, ptr %15, align 8
  %49 = load ptr, ptr %9, align 8
  %50 = getelementptr inbounds nuw %struct.http2_session_t, ptr %49, i32 0, i32 4
  %51 = load i32, ptr %13, align 4
  %52 = zext i32 %51 to i64
  %53 = getelementptr [2 x i32], ptr %50, i64 0, i64 %52
  %54 = load i32, ptr %53, align 4
  %55 = load ptr, ptr %15, align 8
  store i32 %54, ptr %55, align 4
  %56 = load i32, ptr %14, align 4
  %57 = load ptr, ptr %9, align 8
  %58 = getelementptr inbounds nuw %struct.http2_session_t, ptr %57, i32 0, i32 4
  %59 = load i32, ptr %13, align 4
  %60 = zext i32 %59 to i64
  %61 = getelementptr [2 x i32], ptr %58, i64 0, i64 %60
  %62 = load i32, ptr %61, align 4
  %63 = add i32 %62, %56
  store i32 %63, ptr %61, align 4
  %64 = call ptr @wmem_file_scope()
  %65 = load ptr, ptr %8, align 8
  %66 = load i32, ptr @proto_http2, align 4
  %67 = load ptr, ptr %15, align 8
  call void @p_add_proto_data(ptr noundef %64, ptr noundef %65, i32 noundef %66, i32 noundef 1, ptr noundef %67)
  br label %68

68:                                               ; preds = %46, %39
  %69 = load ptr, ptr %10, align 8
  %70 = load i32, ptr @hf_http2_calculated_window_size_connection_before, align 4
  %71 = load ptr, ptr %7, align 8
  %72 = load ptr, ptr %15, align 8
  %73 = load i32, ptr %72, align 4
  %74 = call ptr @proto_tree_add_int(ptr noundef %69, i32 noundef %70, ptr noundef %71, i32 noundef 0, i32 noundef 0, i32 noundef %73)
  call void @proto_item_set_generated(ptr noundef %74)
  %75 = load ptr, ptr %15, align 8
  %76 = load i32, ptr %75, align 4
  %77 = load i32, ptr %14, align 4
  %78 = add i32 %76, %77
  store i32 %78, ptr %16, align 4
  %79 = load ptr, ptr %10, align 8
  %80 = load i32, ptr @hf_http2_calculated_window_size_connection_after, align 4
  %81 = load ptr, ptr %7, align 8
  %82 = load i32, ptr %16, align 4
  %83 = call ptr @proto_tree_add_int(ptr noundef %79, i32 noundef %80, ptr noundef %81, i32 noundef 0, i32 noundef 0, i32 noundef %82)
  call void @proto_item_set_generated(ptr noundef %83)
  call void @llvm.lifetime.end.p0(i64 4, ptr %16) #7
  call void @llvm.lifetime.end.p0(i64 8, ptr %15) #7
  br label %84

84:                                               ; preds = %68, %34
  call void @llvm.lifetime.end.p0(i64 4, ptr %14) #7
  call void @llvm.lifetime.end.p0(i64 4, ptr %13) #7
  ret void
}