; Function Attrs: null_pointer_is_valid sspstrong uwtable
define internal fastcc void @adjust_window_size(ptr noundef %0, ptr noundef %1, ptr noundef captures(none) %2, ptr noundef %3, i32 noundef %4, i1 noundef zeroext %5) unnamed_addr #1 {
  %7 = tail call ptr @get_tcp_conversation_data(ptr noundef null, ptr noundef %1)
  %8 = getelementptr inbounds nuw i8, ptr %7, i64 176
  %9 = load ptr, ptr %8, align 8
  %10 = getelementptr inbounds nuw i8, ptr %2, i64 24
  %11 = load ptr, ptr %10, align 8
  %12 = icmp ne ptr %9, %11
  %13 = sub i32 0, %4
  %14 = select i1 %5, i32 %4, i32 %13
  %spec.select30 = xor i1 %5, %12
  br i1 %5, label %15, label %19

15:                                               ; preds = %6
  %16 = getelementptr inbounds nuw i8, ptr %2, i64 16
  %17 = load i32, ptr %16, align 8
  %18 = icmp eq i32 %17, 0
  br i1 %18, label %19, label %proto_item_set_generated.exit29

19:                                               ; preds = %15, %6
  %20 = tail call ptr @wmem_file_scope()
  %21 = load i32, ptr @proto_http2, align 4
  %22 = tail call ptr @p_get_proto_data(ptr noundef %20, ptr noundef %1, i32 noundef %21, i32 noundef 1)
  %.not = icmp eq ptr %22, null
  br i1 %.not, label %23, label %33

23:                                               ; preds = %19
  %24 = tail call ptr @wmem_file_scope()
  %25 = tail call noalias dereferenceable_or_null(4) ptr @wmem_alloc0(ptr noundef %24, i64 noundef 4) #8
  %26 = getelementptr inbounds nuw i8, ptr %2, i64 40
  %27 = zext i1 %spec.select30 to i64
  %28 = getelementptr [2 x i32], ptr %26, i64 0, i64 %27
  %29 = load i32, ptr %28, align 4
  store i32 %29, ptr %25, align 4
  %30 = add i32 %29, %14
  store i32 %30, ptr %28, align 4
  %31 = tail call ptr @wmem_file_scope()
  %32 = load i32, ptr @proto_http2, align 4
  tail call void @p_add_proto_data(ptr noundef %31, ptr noundef %1, i32 noundef %32, i32 noundef 1, ptr noundef %25)
  br label %33

33:                                               ; preds = %23, %19
  %.025 = phi ptr [ %22, %19 ], [ %25, %23 ]
  %34 = load i32, ptr @hf_http2_calculated_window_size_connection_before, align 4
  %35 = load i32, ptr %.025, align 4
  %36 = tail call ptr @proto_tree_add_int(ptr noundef %3, i32 noundef %34, ptr noundef %0, i32 noundef 0, i32 noundef 0, i32 noundef %35)
  %.not.i = icmp eq ptr %36, null
  br i1 %.not.i, label %proto_item_set_generated.exit, label %37

37:                                               ; preds = %33
  %38 = getelementptr inbounds nuw i8, ptr %36, i64 40
  %39 = load ptr, ptr %38, align 8
  %.not5.i = icmp eq ptr %39, null
  br i1 %.not5.i, label %proto_item_set_generated.exit, label %40

40:                                               ; preds = %37
  %41 = getelementptr inbounds nuw i8, ptr %39, i64 28
  %42 = load i32, ptr %41, align 4
  %43 = or i32 %42, 2
  store i32 %43, ptr %41, align 4
  br label %proto_item_set_generated.exit

proto_item_set_generated.exit:                    ; preds = %33, %37, %40
  %44 = load i32, ptr %.025, align 4
  %45 = add i32 %44, %14
  %46 = load i32, ptr @hf_http2_calculated_window_size_connection_after, align 4
  %47 = tail call ptr @proto_tree_add_int(ptr noundef %3, i32 noundef %46, ptr noundef %0, i32 noundef 0, i32 noundef 0, i32 noundef %45)
  %.not.i27 = icmp eq ptr %47, null
  br i1 %.not.i27, label %proto_item_set_generated.exit29, label %48

48:                                               ; preds = %proto_item_set_generated.exit
  %49 = getelementptr inbounds nuw i8, ptr %47, i64 40
  %50 = load ptr, ptr %49, align 8
  %.not5.i28 = icmp eq ptr %50, null
  br i1 %.not5.i28, label %proto_item_set_generated.exit29, label %51

51:                                               ; preds = %48
  %52 = getelementptr inbounds nuw i8, ptr %50, i64 28
  %53 = load i32, ptr %52, align 4
  %54 = or i32 %53, 2
  store i32 %54, ptr %52, align 4
  br label %proto_item_set_generated.exit29

proto_item_set_generated.exit29:                  ; preds = %51, %48, %proto_item_set_generated.exit, %15
  ret void
}